target datalayout = "e-m:e-p270:32:32-p271:32:32-p272:64:64-i64:64-i128:128-f80:128-n8:16:32:64-S128"
target triple = "x86_64-pc-linux-gnu"

@rb_cObject = external global i64, align 8
@.str.45 = private unnamed_addr constant [34 x i8] c"uninitialized constant %2$s::%1$s\00", align 1
@.str.46 = private unnamed_addr constant [28 x i8] c"uninitialized constant %1$s\00", align 1

; Function Attrs: noreturn nounwind sspstrong uwtable
define internal void @uninitialized_constant(i64 noundef %0, i64 noundef %1) #9 {
  %3 = alloca i64, align 8
  %4 = alloca i64, align 8
  store i64 %0, ptr %3, align 8, !tbaa !14
  store i64 %1, ptr %4, align 8, !tbaa !14
  %5 = load i64, ptr %3, align 8, !tbaa !14
  %6 = icmp ne i64 %5, 0
  br i1 %6, label %7, label %15

7:                                                ; preds = %2
  %8 = load i64, ptr %3, align 8, !tbaa !14
  %9 = call i64 @rb_class_real(i64 noundef %8) #29
  %10 = load i64, ptr @rb_cObject, align 8, !tbaa !14
  %11 = icmp ne i64 %9, %10
  br i1 %11, label %12, label %15

12:                                               ; preds = %7
  %13 = load i64, ptr %3, align 8, !tbaa !14
  %14 = load i64, ptr %4, align 8, !tbaa !14
  call void @rb_name_err_raise(ptr noundef @.str.45, i64 noundef %13, i64 noundef %14) #31
  unreachable

15:                                               ; preds = %7, %2
  %16 = load i64, ptr %3, align 8, !tbaa !14
  %17 = load i64, ptr %4, align 8, !tbaa !14
  call void @rb_name_err_raise(ptr noundef @.str.46, i64 noundef %16, i64 noundef %17) #31
  unreachable
}