; Function Attrs: noreturn nounwind sspstrong uwtable
define internal fastcc void @uninitialized_constant(i64 noundef %0, i64 noundef %1) unnamed_addr #11 {
  %.not = icmp eq i64 %0, 0
  br i1 %.not, label %.split, label %3

.split:                                           ; preds = %2
  tail call fastcc void @rb_name_err_raise(ptr noundef nonnull @.str.46, i64 noundef 0, i64 noundef %1) #36
  unreachable

3:                                                ; preds = %2
  %4 = tail call i64 @rb_class_real(i64 noundef %0) #29
  %5 = load i64, ptr @rb_cObject, align 8, !tbaa !14
  %.not7 = icmp eq i64 %4, %5
  br i1 %.not7, label %.split6, label %6

.split6:                                          ; preds = %3
  tail call fastcc void @rb_name_err_raise(ptr noundef nonnull @.str.46, i64 noundef %0, i64 noundef %1) #36
  unreachable

6:                                                ; preds = %3
  tail call fastcc void @rb_name_err_raise(ptr noundef nonnull @.str.45, i64 noundef %0, i64 noundef %1) #36
  unreachable
}